target datalayout = "e-m:e-p270:32:32-p271:32:32-p272:64:64-i64:64-i128:128-f80:128-n8:16:32:64-S128"
target triple = "x86_64-pc-linux-gnu"

%"class.icu_77::SimpleDateFormatStaticSets" = type { ptr, ptr, ptr }

; Function Attrs: mustprogress nounwind uwtable
define void @_ZN6icu_7726SimpleDateFormatStaticSetsD2Ev(ptr noundef nonnull align 8 dereferenceable(24) %0) unnamed_addr #5 align 2 {
  %2 = alloca ptr, align 8
  store ptr %0, ptr %2, align 8, !tbaa !3
  %3 = load ptr, ptr %2, align 8
  %4 = getelementptr inbounds nuw %"class.icu_77::SimpleDateFormatStaticSets", ptr %3, i32 0, i32 0
  %5 = load ptr, ptr %4, align 8, !tbaa !9
  %6 = icmp eq ptr %5, null
  br i1 %6, label %8, label %7

7:                                                ; preds = %1
  call void @_ZN6icu_7710UnicodeSetD1Ev(ptr noundef nonnull align 8 dereferenceable(200) %5) #9
  call void @_ZN6icu_777UMemorydlEPv(ptr noundef %5) #9
  br label %8

8:                                                ; preds = %7, %1
  %9 = getelementptr inbounds nuw %"class.icu_77::SimpleDateFormatStaticSets", ptr %3, i32 0, i32 0
  store ptr null, ptr %9, align 8, !tbaa !9
  %10 = getelementptr inbounds nuw %"class.icu_77::SimpleDateFormatStaticSets", ptr %3, i32 0, i32 1
  %11 = load ptr, ptr %10, align 8, !tbaa !12
  %12 = icmp eq ptr %11, null
  br i1 %12, label %14, label %13

13:                                               ; preds = %8
  call void @_ZN6icu_7710UnicodeSetD1Ev(ptr noundef nonnull align 8 dereferenceable(200) %11) #9
  call void @_ZN6icu_777UMemorydlEPv(ptr noundef %11) #9
  br label %14

14:                                               ; preds = %13, %8
  %15 = getelementptr inbounds nuw %"class.icu_77::SimpleDateFormatStaticSets", ptr %3, i32 0, i32 1
  store ptr null, ptr %15, align 8, !tbaa !12
  %16 = getelementptr inbounds nuw %"class.icu_77::SimpleDateFormatStaticSets", ptr %3, i32 0, i32 2
  %17 = load ptr, ptr %16, align 8, !tbaa !13
  %18 = icmp eq ptr %17, null
  br i1 %18, label %20, label %19

19:                                               ; preds = %14
  call void @_ZN6icu_7710UnicodeSetD1Ev(ptr noundef nonnull align 8 dereferenceable(200) %17) #9
  call void @_ZN6icu_777UMemorydlEPv(ptr noundef %17) #9
  br label %20

20:                                               ; preds = %19, %14
  %21 = getelementptr inbounds nuw %"class.icu_77::SimpleDateFormatStaticSets", ptr %3, i32 0, i32 2
  store ptr null, ptr %21, align 8, !tbaa !13
  ret void
}