; Function Attrs: mustprogress nounwind uwtable
define void @_ZN6icu_7726SimpleDateFormatStaticSetsD2Ev(ptr noundef nonnull align 8 captures(none) dereferenceable(24) %0) unnamed_addr #4 align 2 {
  %2 = load ptr, ptr %0, align 8, !tbaa !9
  %3 = icmp eq ptr %2, null
  br i1 %3, label %5, label %4

4:                                                ; preds = %1
  tail call void @_ZN6icu_7710UnicodeSetD1Ev(ptr noundef nonnull align 8 dereferenceable(200) %2) #6
  tail call void @_ZN6icu_777UMemorydlEPv(ptr noundef nonnull %2) #6
  br label %5

5:                                                ; preds = %4, %1
  store ptr null, ptr %0, align 8, !tbaa !9
  %6 = getelementptr inbounds nuw i8, ptr %0, i64 8
  %7 = load ptr, ptr %6, align 8, !tbaa !13
  %8 = icmp eq ptr %7, null
  br i1 %8, label %10, label %9

9:                                                ; preds = %5
  tail call void @_ZN6icu_7710UnicodeSetD1Ev(ptr noundef nonnull align 8 dereferenceable(200) %7) #6
  tail call void @_ZN6icu_777UMemorydlEPv(ptr noundef nonnull %7) #6
  br label %10

10:                                               ; preds = %9, %5
  store ptr null, ptr %6, align 8, !tbaa !13
  %11 = getelementptr inbounds nuw i8, ptr %0, i64 16
  %12 = load ptr, ptr %11, align 8, !tbaa !14
  %13 = icmp eq ptr %12, null
  br i1 %13, label %15, label %14

14:                                               ; preds = %10
  tail call void @_ZN6icu_7710UnicodeSetD1Ev(ptr noundef nonnull align 8 dereferenceable(200) %12) #6
  tail call void @_ZN6icu_777UMemorydlEPv(ptr noundef nonnull %12) #6
  br label %15

15:                                               ; preds = %14, %10
  store ptr null, ptr %11, align 8, !tbaa !14
  ret void
}